target datalayout = "e-m:e-p270:32:32-p271:32:32-p272:64:64-i64:64-i128:128-f80:128-n8:16:32:64-S128"
target triple = "x86_64-pc-linux-gnu"

; Function Attrs: null_pointer_is_valid sspstrong uwtable
define internal i32 @read_c4(ptr noundef %0, i32 noundef %1, ptr noundef %2, ptr noundef %3) #0 {
  %5 = alloca ptr, align 8
  %6 = alloca i32, align 4
  %7 = alloca ptr, align 8
  %8 = alloca ptr, align 8
  %9 = alloca i32, align 4
  %10 = alloca i8, align 1
  %11 = alloca i8, align 1
  %12 = alloca i32, align 4
  store ptr %0, ptr %5, align 8
  store i32 %1, ptr %6, align 4
  store ptr %2, ptr %7, align 8
  store ptr %3, ptr %8, align 8
  call void @llvm.lifetime.start.p0(i64 4, ptr %9) #19
  store i32 0, ptr %9, align 4
  call void @llvm.lifetime.start.p0(i64 1, ptr %10) #19
  store i8 0, ptr %10, align 1
  call void @llvm.lifetime.start.p0(i64 1, ptr %11) #19
  %13 = load ptr, ptr %5, align 8
  %14 = load i32, ptr %6, align 4
  %15 = add i32 %14, 1
  store i32 %15, ptr %6, align 4
  %16 = call zeroext i8 @tvb_get_uint8(ptr noundef %13, i32 noundef %14)
  store i8 %16, ptr %11, align 1
  call void @llvm.lifetime.start.p0(i64 4, ptr %12) #19
  %17 = load i8, ptr %11, align 1
  %18 = zext i8 %17 to i32
  %19 = and i32 %18, 128
  %20 = icmp eq i32 %19, 0
  br i1 %20, label %21, label %26

21:                                               ; preds = %4
  store i8 1, ptr %10, align 1
  %22 = load i8, ptr %11, align 1
  %23 = zext i8 %22 to i32
  %24 = and i32 %23, 127
  %25 = trunc i32 %24 to i8
  store i8 %25, ptr %11, align 1
  br label %42

26:                                               ; preds = %4
  %27 = load i8, ptr %11, align 1
  %28 = zext i8 %27 to i32
  %29 = and i32 %28, 64
  %30 = icmp eq i32 %29, 0
  br i1 %30, label %31, label %36

31:                                               ; preds = %26
  store i8 2, ptr %10, align 1
  %32 = load i8, ptr %11, align 1
  %33 = zext i8 %32 to i32
  %34 = and i32 %33, 63
  %35 = trunc i32 %34 to i8
  store i8 %35, ptr %11, align 1
  br label %41

36:                                               ; preds = %26
  store i8 4, ptr %10, align 1
  %37 = load i8, ptr %11, align 1
  %38 = zext i8 %37 to i32
  %39 = and i32 %38, 63
  %40 = trunc i32 %39 to i8
  store i8 %40, ptr %11, align 1
  br label %41

41:                                               ; preds = %36, %31
  br label %42

42:                                               ; preds = %41, %21
  %43 = load i8, ptr %11, align 1
  %44 = zext i8 %43 to i32
  store i32 %44, ptr %9, align 4
  store i32 1, ptr %12, align 4
  br label %45

45:                                               ; preds = %59, %42
  %46 = load i32, ptr %12, align 4
  %47 = load i8, ptr %10, align 1
  %48 = zext i8 %47 to i32
  %49 = icmp slt i32 %46, %48
  br i1 %49, label %50, label %62

50:                                               ; preds = %45
  %51 = load i32, ptr %9, align 4
  %52 = shl i32 %51, 8
  %53 = load ptr, ptr %5, align 8
  %54 = load i32, ptr %6, align 4
  %55 = add i32 %54, 1
  store i32 %55, ptr %6, align 4
  %56 = call zeroext i8 @tvb_get_uint8(ptr noundef %53, i32 noundef %54)
  %57 = zext i8 %56 to i32
  %58 = or i32 %52, %57
  store i32 %58, ptr %9, align 4
  br label %59

59:                                               ; preds = %50
  %60 = load i32, ptr %12, align 4
  %61 = add i32 %60, 1
  store i32 %61, ptr %12, align 4
  br label %45, !llvm.loop !34

62:                                               ; preds = %45
  %63 = load ptr, ptr %8, align 8
  %64 = icmp ne ptr %63, null
  br i1 %64, label %65, label %69

65:                                               ; preds = %62
  %66 = load i8, ptr %10, align 1
  %67 = zext i8 %66 to i32
  %68 = load ptr, ptr %8, align 8
  store i32 %67, ptr %68, align 4
  br label %69

69:                                               ; preds = %65, %62
  %70 = load ptr, ptr %7, align 8
  %71 = icmp ne ptr %70, null
  br i1 %71, label %72, label %75

72:                                               ; preds = %69
  %73 = load i32, ptr %9, align 4
  %74 = load ptr, ptr %7, align 8
  store i32 %73, ptr %74, align 4
  br label %75

75:                                               ; preds = %72, %69
  %76 = load i32, ptr %6, align 4
  call void @llvm.lifetime.end.p0(i64 4, ptr %12) #19
  call void @llvm.lifetime.end.p0(i64 1, ptr %11) #19
  call void @llvm.lifetime.end.p0(i64 1, ptr %10) #19
  call void @llvm.lifetime.end.p0(i64 4, ptr %9) #19
  ret i32 %76
}