; Function Attrs: null_pointer_is_valid sspstrong uwtable
define internal fastcc noundef i32 @read_c4(ptr noundef %0, i32 noundef %1, ptr noundef writeonly captures(address_is_null) %2, ptr noundef writeonly captures(address_is_null) %3) unnamed_addr #0 {
  %5 = tail call zeroext i8 @tvb_get_uint8(ptr noundef %0, i32 noundef %1)
  %6 = icmp slt i8 %5, 0
  %7 = and i8 %5, 64
  %8 = icmp eq i8 %7, 0
  %9 = and i8 %5, 63
  %. = select i1 %8, i32 2, i32 4
  %.021 = select i1 %6, i32 %., i32 1
  %.020 = select i1 %6, i8 %9, i8 %5
  %10 = zext nneg i8 %.020 to i32
  %.02328 = add i32 %1, 1
  br i1 %6, label %.lr.ph, label %._crit_edge

.lr.ph:                                           ; preds = %4, %.lr.ph
  %.02331 = phi i32 [ %.023, %.lr.ph ], [ %.02328, %4 ]
  %.030 = phi i32 [ %15, %.lr.ph ], [ 1, %4 ]
  %.02229 = phi i32 [ %14, %.lr.ph ], [ %10, %4 ]
  %11 = shl i32 %.02229, 8
  %12 = tail call zeroext i8 @tvb_get_uint8(ptr noundef %0, i32 noundef %.02331)
  %13 = zext i8 %12 to i32
  %14 = or disjoint i32 %11, %13
  %15 = add nuw nsw i32 %.030, 1
  %.023 = add i32 %.02331, 1
  %exitcond.not = icmp eq i32 %15, %.
  br i1 %exitcond.not, label %._crit_edge, label %.lr.ph, !llvm.loop !33

._crit_edge:                                      ; preds = %.lr.ph, %4
  %.022.lcssa = phi i32 [ %10, %4 ], [ %14, %.lr.ph ]
  %.023.lcssa = phi i32 [ %.02328, %4 ], [ %.023, %.lr.ph ]
  %.not = icmp eq ptr %3, null
  br i1 %.not, label %17, label %16

16:                                               ; preds = %._crit_edge
  store i32 %.021, ptr %3, align 4
  br label %17

17:                                               ; preds = %16, %._crit_edge
  %.not27 = icmp eq ptr %2, null
  br i1 %.not27, label %19, label %18

18:                                               ; preds = %17
  store i32 %.022.lcssa, ptr %2, align 4
  br label %19

19:                                               ; preds = %18, %17
  ret i32 %.023.lcssa
}